; Function Attrs: mustprogress nofree nounwind willreturn memory(read, inaccessiblemem: none) uwtable
define noundef zeroext i1 @_ZNK4pkpy3StrltESt17basic_string_viewIcSt11char_traitsIcEE(ptr nocapture noundef nonnull readonly align 8 dereferenceable(32) %0, i64 %1, ptr nocapture readonly %2) local_unnamed_addr #9 align 2 personality ptr @__gxx_personality_v0 {
  %4 = load i32, ptr %0, align 8
  %5 = sext i32 %4 to i64
  %.sroa.speculated.i.i = tail call i64 @llvm.umin.i64(i64 %5, i64 %1)
  %6 = icmp eq i64 %.sroa.speculated.i.i, 0
  br i1 %6, label %_ZNSt11char_traitsIcE7compareEPKcS2_m.exit.thread.i.i, label %_ZNSt11char_traitsIcE7compareEPKcS2_m.exit.i.i

_ZNSt11char_traitsIcE7compareEPKcS2_m.exit.i.i:   ; preds = %3
  %7 = getelementptr inbounds i8, ptr %0, i64 8
  %8 = load ptr, ptr %7, align 8
  %9 = tail call i32 @memcmp(ptr noundef %8, ptr noundef %2, i64 noundef %.sroa.speculated.i.i) #23
  %10 = icmp eq i32 %9, 0
  br i1 %10, label %_ZNSt11char_traitsIcE7compareEPKcS2_m.exit.thread.i.i, label %_ZStltIcSt11char_traitsIcEEbSt17basic_string_viewIT_T0_ES5_.exit

_ZNSt11char_traitsIcE7compareEPKcS2_m.exit.thread.i.i: ; preds = %_ZNSt11char_traitsIcE7compareEPKcS2_m.exit.i.i, %3
  %11 = sub i64 %5, %1
  %spec.select7.i.i.i = tail call i64 @llvm.smax.i64(i64 %11, i64 -2147483648)
  %.08.i.i.i = tail call i64 @llvm.smin.i64(i64 %spec.select7.i.i.i, i64 2147483647)
  %.0.i4.i.i = trunc nsw i64 %.08.i.i.i to i32
  br label %_ZStltIcSt11char_traitsIcEEbSt17basic_string_viewIT_T0_ES5_.exit

_ZStltIcSt11char_traitsIcEEbSt17basic_string_viewIT_T0_ES5_.exit: ; preds = %_ZNSt11char_traitsIcE7compareEPKcS2_m.exit.i.i, %_ZNSt11char_traitsIcE7compareEPKcS2_m.exit.thread.i.i
  %.0.i.i = phi i32 [ %.0.i4.i.i, %_ZNSt11char_traitsIcE7compareEPKcS2_m.exit.thread.i.i ], [ %9, %_ZNSt11char_traitsIcE7compareEPKcS2_m.exit.i.i ]
  %12 = icmp slt i32 %.0.i.i, 0
  ret i1 %12
}